target datalayout = "e-m:e-p270:32:32-p271:32:32-p272:64:64-i64:64-i128:128-f80:128-n8:16:32:64-S128"
target triple = "x86_64-unknown-linux-gnu"

%"class.OpenColorIO_v2_4dev::Lut1DTransformImpl" = type { %"class.OpenColorIO_v2_4dev::Lut1DTransform", %"class.OpenColorIO_v2_4dev::Lut1DOpData" }
%"class.OpenColorIO_v2_4dev::Lut1DTransform" = type { %"class.OpenColorIO_v2_4dev::Transform" }
%"class.OpenColorIO_v2_4dev::Transform" = type { ptr }
%"class.OpenColorIO_v2_4dev::Lut1DOpData" = type <{ %"class.OpenColorIO_v2_4dev::OpData", i32, [4 x i8], %"class.OpenColorIO_v2_4dev::Lut1DOpData::Lut3by1DArray", i32, i32, i32, [4 x i8], [3 x %"struct.OpenColorIO_v2_4dev::Lut1DOpData::ComponentProperties"], i32, [4 x i8] }>
%"class.OpenColorIO_v2_4dev::OpData" = type { ptr, %"class.std::mutex", %"class.OpenColorIO_v2_4dev::FormatMetadataImpl" }
%"class.std::mutex" = type { %"class.std::__mutex_base" }
%"class.std::__mutex_base" = type { %union.pthread_mutex_t }
%union.pthread_mutex_t = type { %struct.__pthread_mutex_s }
%struct.__pthread_mutex_s = type { i32, i32, i32, i32, i32, i16, i16, %struct.__pthread_internal_list }
%struct.__pthread_internal_list = type { ptr, ptr }
%"class.OpenColorIO_v2_4dev::FormatMetadataImpl" = type { %"class.OpenColorIO_v2_4dev::FormatMetadata", %"class.std::__cxx11::basic_string", %"class.std::__cxx11::basic_string", %"class.std::vector", %"class.std::vector.3" }
%"class.OpenColorIO_v2_4dev::FormatMetadata" = type { ptr }
%"class.std::__cxx11::basic_string" = type { %"struct.std::__cxx11::basic_string<char>::_Alloc_hider", i64, %union.anon }
%"struct.std::__cxx11::basic_string<char>::_Alloc_hider" = type { ptr }
%union.anon = type { i64, [8 x i8] }
%"class.std::vector" = type { %"struct.std::_Vector_base" }
%"struct.std::_Vector_base" = type { %"struct.std::_Vector_base<std::pair<std::__cxx11::basic_string<char>, std::__cxx11::basic_string<char>>, std::allocator<std::pair<std::__cxx11::basic_string<char>, std::__cxx11::basic_string<char>>>>::_Vector_impl" }
%"struct.std::_Vector_base<std::pair<std::__cxx11::basic_string<char>, std::__cxx11::basic_string<char>>, std::allocator<std::pair<std::__cxx11::basic_string<char>, std::__cxx11::basic_string<char>>>>::_Vector_impl" = type { %"struct.std::_Vector_base<std::pair<std::__cxx11::basic_string<char>, std::__cxx11::basic_string<char>>, std::allocator<std::pair<std::__cxx11::basic_string<char>, std::__cxx11::basic_string<char>>>>::_Vector_impl_data" }
%"struct.std::_Vector_base<std::pair<std::__cxx11::basic_string<char>, std::__cxx11::basic_string<char>>, std::allocator<std::pair<std::__cxx11::basic_string<char>, std::__cxx11::basic_string<char>>>>::_Vector_impl_data" = type { ptr, ptr, ptr }
%"class.std::vector.3" = type { %"struct.std::_Vector_base.4" }
%"struct.std::_Vector_base.4" = type { %"struct.std::_Vector_base<OpenColorIO_v2_4dev::FormatMetadataImpl, std::allocator<OpenColorIO_v2_4dev::FormatMetadataImpl>>::_Vector_impl" }
%"struct.std::_Vector_base<OpenColorIO_v2_4dev::FormatMetadataImpl, std::allocator<OpenColorIO_v2_4dev::FormatMetadataImpl>>::_Vector_impl" = type { %"struct.std::_Vector_base<OpenColorIO_v2_4dev::FormatMetadataImpl, std::allocator<OpenColorIO_v2_4dev::FormatMetadataImpl>>::_Vector_impl_data" }
%"struct.std::_Vector_base<OpenColorIO_v2_4dev::FormatMetadataImpl, std::allocator<OpenColorIO_v2_4dev::FormatMetadataImpl>>::_Vector_impl_data" = type { ptr, ptr, ptr }
%"class.OpenColorIO_v2_4dev::Lut1DOpData::Lut3by1DArray" = type { %"class.OpenColorIO_v2_4dev::ArrayT" }
%"class.OpenColorIO_v2_4dev::ArrayT" = type { %"class.OpenColorIO_v2_4dev::ArrayBase", i64, i64, %"class.std::vector.8" }
%"class.OpenColorIO_v2_4dev::ArrayBase" = type { ptr }
%"class.std::vector.8" = type { %"struct.std::_Vector_base.9" }
%"struct.std::_Vector_base.9" = type { %"struct.std::_Vector_base<float, std::allocator<float>>::_Vector_impl" }
%"struct.std::_Vector_base<float, std::allocator<float>>::_Vector_impl" = type { %"struct.std::_Vector_base<float, std::allocator<float>>::_Vector_impl_data" }
%"struct.std::_Vector_base<float, std::allocator<float>>::_Vector_impl_data" = type { ptr, ptr, ptr }
%"struct.OpenColorIO_v2_4dev::Lut1DOpData::ComponentProperties" = type { i8, i64, i64, i64, i64 }

@.str.2 = private unnamed_addr constant [9 x i8] c"getValue\00", align 1

; Function Attrs: mustprogress nounwind uwtable
define linkonce_odr hidden noundef nonnull align 4 dereferenceable(4) ptr @_ZNKSt6vectorIfSaIfEEixEm(ptr noundef nonnull align 8 dereferenceable(24) %this, i64 noundef %__n) #7 comdat align 2 {
entry:
  %this.addr = alloca ptr, align 8
  %__n.addr = alloca i64, align 8
  store ptr %this, ptr %this.addr, align 8
  store i64 %__n, ptr %__n.addr, align 8
  %this1 = load ptr, ptr %this.addr, align 8
  %_M_impl = getelementptr inbounds %"struct.std::_Vector_base.9", ptr %this1, i32 0, i32 0
  %_M_start = getelementptr inbounds %"struct.std::_Vector_base<float, std::allocator<float>>::_Vector_impl_data", ptr %_M_impl, i32 0, i32 0
  %0 = load ptr, ptr %_M_start, align 8
  %1 = load i64, ptr %__n.addr, align 8
  %add.ptr = getelementptr inbounds float, ptr %0, i64 %1
  ret ptr %add.ptr
}

; Function Attrs: mustprogress nounwind uwtable
define linkonce_odr hidden noundef nonnull align 4 dereferenceable(4) ptr @_ZNK19OpenColorIO_v2_4dev6ArrayTIfEixEm(ptr noundef nonnull align 8 dereferenceable(48) %this, i64 noundef %index) #7 comdat align 2 {
entry:
  %this.addr = alloca ptr, align 8
  %index.addr = alloca i64, align 8
  store ptr %this, ptr %this.addr, align 8
  store i64 %index, ptr %index.addr, align 8
  %this1 = load ptr, ptr %this.addr, align 8
  %m_data = getelementptr inbounds %"class.OpenColorIO_v2_4dev::ArrayT", ptr %this1, i32 0, i32 3
  %0 = load i64, ptr %index.addr, align 8
  %call = call noundef nonnull align 4 dereferenceable(4) ptr @_ZNKSt6vectorIfSaIfEEixEm(ptr noundef nonnull align 8 dereferenceable(24) %m_data, i64 noundef %0) #3
  ret ptr %call
}

; Function Attrs: mustprogress nounwind uwtable
define linkonce_odr hidden noundef nonnull align 8 dereferenceable(48) ptr @_ZNK19OpenColorIO_v2_4dev11Lut1DOpData8getArrayEv(ptr noundef nonnull align 8 dereferenceable(364) %this) #7 comdat align 2 {
entry:
  %this.addr = alloca ptr, align 8
  store ptr %this, ptr %this.addr, align 8
  %this1 = load ptr, ptr %this.addr, align 8
  %m_array = getelementptr inbounds %"class.OpenColorIO_v2_4dev::Lut1DOpData", ptr %this1, i32 0, i32 3
  ret ptr %m_array
}

; Function Attrs: mustprogress nounwind uwtable
define linkonce_odr hidden noundef nonnull align 8 dereferenceable(364) ptr @_ZNK19OpenColorIO_v2_4dev18Lut1DTransformImpl4dataEv(ptr noundef nonnull align 8 dereferenceable(376) %this) #7 comdat align 2 {
entry:
  %this.addr = alloca ptr, align 8
  store ptr %this, ptr %this.addr, align 8
  %this1 = load ptr, ptr %this.addr, align 8
  %m_data = getelementptr inbounds %"class.OpenColorIO_v2_4dev::Lut1DTransformImpl", ptr %this1, i32 0, i32 1
  ret ptr %m_data
}

; Function Attrs: mustprogress uwtable
define hidden void @_ZNK19OpenColorIO_v2_4dev18Lut1DTransformImpl8getValueEmRfS1_S1_(ptr noundef nonnull align 8 dereferenceable(376) %this, i64 noundef %index, ptr noundef nonnull align 4 dereferenceable(4) %r, ptr noundef nonnull align 4 dereferenceable(4) %g, ptr noundef nonnull align 4 dereferenceable(4) %b) unnamed_addr #4 align 2 {
entry:
  %this.addr = alloca ptr, align 8
  %index.addr = alloca i64, align 8
  %r.addr = alloca ptr, align 8
  %g.addr = alloca ptr, align 8
  %b.addr = alloca ptr, align 8
  store ptr %this, ptr %this.addr, align 8
  store i64 %index, ptr %index.addr, align 8
  store ptr %r, ptr %r.addr, align 8
  store ptr %g, ptr %g.addr, align 8
  store ptr %b, ptr %b.addr, align 8
  %this1 = load ptr, ptr %this.addr, align 8
  %0 = load i64, ptr %index.addr, align 8
  %vtable = load ptr, ptr %this1, align 8
  %vfn = getelementptr inbounds ptr, ptr %vtable, i64 12
  %1 = load ptr, ptr %vfn, align 8
  %call = call noundef i64 %1(ptr noundef nonnull align 8 dereferenceable(376) %this1)
  call void @_ZN19OpenColorIO_v2_4dev12_GLOBAL__N_115CheckLUT1DIndexEPKcmm(ptr noundef @.str.2, i64 noundef %0, i64 noundef %call)
  %call2 = call noundef nonnull align 8 dereferenceable(364) ptr @_ZNK19OpenColorIO_v2_4dev18Lut1DTransformImpl4dataEv(ptr noundef nonnull align 8 dereferenceable(376) %this1) #3
  %call3 = call noundef nonnull align 8 dereferenceable(48) ptr @_ZNK19OpenColorIO_v2_4dev11Lut1DOpData8getArrayEv(ptr noundef nonnull align 8 dereferenceable(364) %call2) #3
  %2 = load i64, ptr %index.addr, align 8
  %mul = mul i64 3, %2
  %call4 = call noundef nonnull align 4 dereferenceable(4) ptr @_ZNK19OpenColorIO_v2_4dev6ArrayTIfEixEm(ptr noundef nonnull align 8 dereferenceable(48) %call3, i64 noundef %mul)
  %3 = load float, ptr %call4, align 4
  %4 = load ptr, ptr %r.addr, align 8
  store float %3, ptr %4, align 4
  %call5 = call noundef nonnull align 8 dereferenceable(364) ptr @_ZNK19OpenColorIO_v2_4dev18Lut1DTransformImpl4dataEv(ptr noundef nonnull align 8 dereferenceable(376) %this1) #3
  %call6 = call noundef nonnull align 8 dereferenceable(48) ptr @_ZNK19OpenColorIO_v2_4dev11Lut1DOpData8getArrayEv(ptr noundef nonnull align 8 dereferenceable(364) %call5) #3
  %5 = load i64, ptr %index.addr, align 8
  %mul7 = mul i64 3, %5
  %add = add i64 %mul7, 1
  %call8 = call noundef nonnull align 4 dereferenceable(4) ptr @_ZNK19OpenColorIO_v2_4dev6ArrayTIfEixEm(ptr noundef nonnull align 8 dereferenceable(48) %call6, i64 noundef %add)
  %6 = load float, ptr %call8, align 4
  %7 = load ptr, ptr %g.addr, align 8
  store float %6, ptr %7, align 4
  %call9 = call noundef nonnull align 8 dereferenceable(364) ptr @_ZNK19OpenColorIO_v2_4dev18Lut1DTransformImpl4dataEv(ptr noundef nonnull align 8 dereferenceable(376) %this1) #3
  %call10 = call noundef nonnull align 8 dereferenceable(48) ptr @_ZNK19OpenColorIO_v2_4dev11Lut1DOpData8getArrayEv(ptr noundef nonnull align 8 dereferenceable(364) %call9) #3
  %8 = load i64, ptr %index.addr, align 8
  %mul11 = mul i64 3, %8
  %add12 = add i64 %mul11, 2
  %call13 = call noundef nonnull align 4 dereferenceable(4) ptr @_ZNK19OpenColorIO_v2_4dev6ArrayTIfEixEm(ptr noundef nonnull align 8 dereferenceable(48) %call10, i64 noundef %add12)
  %9 = load float, ptr %call13, align 4
  %10 = load ptr, ptr %b.addr, align 8
  store float %9, ptr %10, align 4
  ret void
}