; Function Attrs: mustprogress uwtable
define hidden void @_ZNK19OpenColorIO_v2_4dev18Lut1DTransformImpl8getValueEmRfS1_S1_(ptr noundef nonnull align 8 dereferenceable(376) %this, i64 noundef %index, ptr nocapture noundef nonnull writeonly align 4 dereferenceable(4) %r, ptr nocapture noundef nonnull writeonly align 4 dereferenceable(4) %g, ptr nocapture noundef nonnull writeonly align 4 dereferenceable(4) %b) unnamed_addr #3 align 2 {
entry:
  %vtable = load ptr, ptr %this, align 8
  %vfn = getelementptr inbounds i8, ptr %vtable, i64 96
  %0 = load ptr, ptr %vfn, align 8
  %call = tail call noundef i64 %0(ptr noundef nonnull align 8 dereferenceable(376) %this)
  tail call fastcc void @_ZN19OpenColorIO_v2_4dev12_GLOBAL__N_115CheckLUT1DIndexEPKcmm(ptr noundef nonnull @.str.2, i64 noundef %index, i64 noundef %call)
  %mul = mul i64 %index, 3
  %m_data.i4 = getelementptr inbounds i8, ptr %this, i64 208
  %1 = load ptr, ptr %m_data.i4, align 8
  %add.ptr.i.i = getelementptr inbounds float, ptr %1, i64 %mul
  %2 = load float, ptr %add.ptr.i.i, align 4
  store float %2, ptr %r, align 4
  %3 = load ptr, ptr %m_data.i4, align 8
  %4 = getelementptr float, ptr %3, i64 %mul
  %add.ptr.i.i8 = getelementptr i8, ptr %4, i64 4
  %5 = load float, ptr %add.ptr.i.i8, align 4
  store float %5, ptr %g, align 4
  %6 = load ptr, ptr %m_data.i4, align 8
  %7 = getelementptr float, ptr %6, i64 %mul
  %add.ptr.i.i12 = getelementptr i8, ptr %7, i64 8
  %8 = load float, ptr %add.ptr.i.i12, align 4
  store float %8, ptr %b, align 4
  ret void
}